(dp0
S'min'
p1
F4.2999999999999998
sS'max'
p2
F7.9000000000000004
sS'ascvc'
p3
I0
sS'nvals'
p4
(lp5
F4.2999999999999998
aF4.4000000000000004
aF4.5
aF4.5999999999999996
aF4.7000000000000002
aF4.7999999999999998
aF4.9000000000000004
aF5.0
aF5.0999999999999996
aF5.2000000000000002
aF5.2999999999999998
aF5.4000000000000004
aF5.5
aF5.5999999999999996
aF5.7000000000000002
aF5.7999999999999998
aF5.9000000000000004
aF6.0
aF6.0999999999999996
aF6.2000000000000002
aF6.2999999999999998
aF6.4000000000000004
aF6.5
aF6.5999999999999996
aF6.7000000000000002
aF6.7999999999999998
aF6.9000000000000004
aF7.0
aF7.0999999999999996
aF7.2000000000000002
aF7.2999999999999998
aF7.4000000000000004
aF7.5999999999999996
aF7.7000000000000002
aF7.9000000000000004
asS'numvc'
p6
I35
sS'numc'
p7
I150
sS'avals'
p8
(lp9
sS'type'
p10
S'N'
p11
sS'ascc'
p12
I0
s.(dp0
S'min'
p1
F2.0
sS'max'
p2
F4.4000000000000004
sS'ascvc'
p3
I0
sS'nvals'
p4
(lp5
F2.0
aF2.2000000000000002
aF2.2999999999999998
aF2.3999999999999999
aF2.5
aF2.6000000000000001
aF2.7000000000000002
aF2.7999999999999998
aF2.8999999999999999
aF3.0
aF3.1000000000000001
aF3.2000000000000002
aF3.2999999999999998
aF3.3999999999999999
aF3.5
aF3.6000000000000001
aF3.7000000000000002
aF3.7999999999999998
aF3.8999999999999999
aF4.0
aF4.0999999999999996
aF4.2000000000000002
aF4.4000000000000004
asS'numvc'
p6
I23
sS'numc'
p7
I150
sS'avals'
p8
(lp9
sS'type'
p10
S'N'
p11
sS'ascc'
p12
I0
s.(dp0
S'min'
p1
F1.0
sS'max'
p2
F6.9000000000000004
sS'ascvc'
p3
I0
sS'nvals'
p4
(lp5
F1.0
aF1.1000000000000001
aF1.2
aF1.3
aF1.3999999999999999
aF1.5
aF1.6000000000000001
aF1.7
aF1.8999999999999999
aF3.0
aF3.2999999999999998
aF3.5
aF3.6000000000000001
aF3.7000000000000002
aF3.7999999999999998
aF3.8999999999999999
aF4.0
aF4.0999999999999996
aF4.2000000000000002
aF4.2999999999999998
aF4.4000000000000004
aF4.5
aF4.5999999999999996
aF4.7000000000000002
aF4.7999999999999998
aF4.9000000000000004
aF5.0
aF5.0999999999999996
aF5.2000000000000002
aF5.2999999999999998
aF5.4000000000000004
aF5.5
aF5.5999999999999996
aF5.7000000000000002
aF5.7999999999999998
aF5.9000000000000004
aF6.0
aF6.0999999999999996
aF6.2999999999999998
aF6.4000000000000004
aF6.5999999999999996
aF6.7000000000000002
aF6.9000000000000004
asS'numvc'
p6
I43
sS'numc'
p7
I150
sS'avals'
p8
(lp9
sS'type'
p10
S'N'
p11
sS'ascc'
p12
I0
s.(dp0
S'min'
p1
F0.10000000000000001
sS'max'
p2
F2.5
sS'ascvc'
p3
I0
sS'nvals'
p4
(lp5
F0.10000000000000001
aF0.20000000000000001
aF0.29999999999999999
aF0.40000000000000002
aF0.5
aF0.59999999999999998
aF1.0
aF1.1000000000000001
aF1.2
aF1.3
aF1.3999999999999999
aF1.5
aF1.6000000000000001
aF1.7
aF1.8
aF1.8999999999999999
aF2.0
aF2.1000000000000001
aF2.2000000000000002
aF2.2999999999999998
aF2.3999999999999999
aF2.5
asS'numvc'
p6
I22
sS'numc'
p7
I150
sS'avals'
p8
(lp9
sS'type'
p10
S'N'
p11
sS'ascc'
p12
I0
s.(dp0
S'min'
p1
I0
sS'max'
p2
I0
sS'ascvc'
p3
I3
sS'nvals'
p4
(lp5
sS'numvc'
p6
I0
sS'numc'
p7
I0
sS'avals'
p8
(lp9
S'Iris-setosa'
p10
aS'Iris-versicolor'
p11
aS'Iris-virginica'
p12
asS'type'
p13
S'A'
p14
sS'ascc'
p15
I150
s.