(dp0
S'valsfrg'
p1
(lp2
L45L
aL50L
aL43L
aL12L
asS'missfrq'
p3
I0
s.(dp0
S'valsfrg'
p1
(lp2
L24L
aL84L
aL36L
aL6L
asS'missfrq'
p3
I0
s.(dp0
S'valsfrg'
p1
(lp2
L50L
aL11L
aL61L
aL28L
asS'missfrq'
p3
I0
s.(dp0
S'valsfrg'
p1
(lp2
L50L
aL28L
aL43L
aL29L
asS'missfrq'
p3
I0
s.(dp0
S'valsfrg'
p1
(lp2
L50L
aL50L
aL50L
asS'missfrq'
p3
I0
s.